---
triple:          'arm64-apple-darwin'
binary-path:     chapter16_2
relocations:
  - { offsetInCU: 0x502F, offset: 0x502F, size: 0x8, addend: 0x0, symName: __ZNSt3__124__put_character_sequenceB7v160006IcNS_11char_traitsIcEEEERNS_13basic_ostreamIT_T0_EES7_PKS4_m, symObjAddr: 0x30E0, symBinAddr: 0x100006D24, symSize: 0x1EC }
  - { offsetInCU: 0x6B8B, offset: 0x6B8B, size: 0x8, addend: 0x0, symName: __ZNSt3__14sizeB7v160006INS_6vectorIiNS_9allocatorIiEEEEEEDTcldtfp_4sizeEERKT_, symObjAddr: 0x334, symBinAddr: 0x100003F78, symSize: 0x24 }
  - { offsetInCU: 0x6BC0, offset: 0x6BC0, size: 0x8, addend: 0x0, symName: __ZNSt3__14sizeB7v160006INS_6vectorINS_17basic_string_viewIcNS_11char_traitsIcEEEENS_9allocatorIS5_EEEEEEDTcldtfp_4sizeEERKT_, symObjAddr: 0x358, symBinAddr: 0x100003F9C, symSize: 0x24 }
  - { offsetInCU: 0x6BF5, offset: 0x6BF5, size: 0x8, addend: 0x0, symName: __ZNSt3__1lsB7v160006IcNS_11char_traitsIcEEEERNS_13basic_ostreamIT_T0_EES7_NS_17basic_string_viewIS4_S5_EE, symObjAddr: 0x3A0, symBinAddr: 0x100003FE4, symSize: 0x5C }
  - { offsetInCU: 0x6C44, offset: 0x6C44, size: 0x8, addend: 0x0, symName: __ZNSt3__1lsB7v160006INS_11char_traitsIcEEEERNS_13basic_ostreamIcT_EES6_c, symObjAddr: 0x420, symBinAddr: 0x100004064, symSize: 0x34 }
  - { offsetInCU: 0x6C8A, offset: 0x6C8A, size: 0x8, addend: 0x0, symName: __ZNSt3__122__make_exception_guardB7v160006INS_6vectorIiNS_9allocatorIiEEE16__destroy_vectorEEENS_28__exception_guard_exceptionsIT_EES7_, symObjAddr: 0x68C, symBinAddr: 0x1000042D0, symSize: 0x40 }
  - { offsetInCU: 0x6CBF, offset: 0x6CBF, size: 0x8, addend: 0x0, symName: __ZNSt3__119__debug_db_insert_cB7v160006INS_6vectorIiNS_9allocatorIiEEEEEEvPT_, symObjAddr: 0x700, symBinAddr: 0x100004344, symSize: 0x10 }
  - { offsetInCU: 0x6CF0, offset: 0x6CF0, size: 0x8, addend: 0x0, symName: __ZNSt3__119__allocate_at_leastB7v160006INS_9allocatorIiEEEENS_19__allocation_resultINS_16allocator_traitsIT_E7pointerEEERS5_m, symObjAddr: 0xA9C, symBinAddr: 0x1000046E0, symSize: 0x40 }
  - { offsetInCU: 0x6D33, offset: 0x6D33, size: 0x8, addend: 0x0, symName: __ZNSt3__13minB7v160006ImEERKT_S3_S3_, symObjAddr: 0xBD8, symBinAddr: 0x10000481C, symSize: 0x2C }
  - { offsetInCU: 0x6F60, offset: 0x6F60, size: 0x8, addend: 0x0, symName: __ZNSt3__13minB7v160006ImNS_6__lessImmEEEERKT_S5_S5_T0_, symObjAddr: 0xC70, symBinAddr: 0x1000048B4, symSize: 0x54 }
  - { offsetInCU: 0x6FF5, offset: 0x6FF5, size: 0x8, addend: 0x0, symName: __ZNSt3__120__throw_length_errorB7v160006EPKc, symObjAddr: 0xD4C, symBinAddr: 0x100004990, symSize: 0x64 }
  - { offsetInCU: 0x701D, offset: 0x701D, size: 0x8, addend: 0x0, symName: __ZNSt3__117__libcpp_allocateB7v160006Emm, symObjAddr: 0xEBC, symBinAddr: 0x100004B00, symSize: 0x60 }
  - { offsetInCU: 0x7077, offset: 0x7077, size: 0x8, addend: 0x0, symName: __ZNSt3__124__is_overaligned_for_newB7v160006Em, symObjAddr: 0xF1C, symBinAddr: 0x100004B60, symSize: 0x20 }
  - { offsetInCU: 0x70A5, offset: 0x70A5, size: 0x8, addend: 0x0, symName: __ZNSt3__121__libcpp_operator_newB7v160006IJmSt11align_val_tEEEPvDpT_, symObjAddr: 0xF3C, symBinAddr: 0x100004B80, symSize: 0x2C }
  - { offsetInCU: 0x70F2, offset: 0x70F2, size: 0x8, addend: 0x0, symName: __ZNSt3__121__libcpp_operator_newB7v160006IJmEEEPvDpT_, symObjAddr: 0xF68, symBinAddr: 0x100004BAC, symSize: 0x24 }
  - { offsetInCU: 0x712B, offset: 0x712B, size: 0x8, addend: 0x0, symName: __ZNSt3__112__to_addressB7v160006IiEEPT_S2_, symObjAddr: 0x1084, symBinAddr: 0x100004CC8, symSize: 0x14 }
  - { offsetInCU: 0x7160, offset: 0x7160, size: 0x8, addend: 0x0, symName: __ZNSt3__130__uninitialized_allocator_copyB7v160006INS_9allocatorIiEEiiLPv0EEEPT0_RT_PKS4_S9_S5_, symObjAddr: 0x1134, symBinAddr: 0x100004D78, symSize: 0x38 }
  - { offsetInCU: 0x71D8, offset: 0x71D8, size: 0x8, addend: 0x0, symName: __ZNSt3__14copyB7v160006IPKiPiEET0_T_S5_S4_, symObjAddr: 0x11DC, symBinAddr: 0x100004E20, symSize: 0x40 }
  - { offsetInCU: 0x7232, offset: 0x7232, size: 0x8, addend: 0x0, symName: __ZNSt3__16__copyB7v160006INS_17_ClassicAlgPolicyEPKiS3_PiEENS_4pairIT0_T2_EES6_T1_S7_, symObjAddr: 0x121C, symBinAddr: 0x100004E60, symSize: 0x44 }
  - { offsetInCU: 0x729E, offset: 0x729E, size: 0x8, addend: 0x0, symName: __ZNSt3__123__dispatch_copy_or_moveB7v160006INS_17_ClassicAlgPolicyENS_11__copy_loopIS1_EENS_14__copy_trivialEPKiS6_PiEENS_4pairIT2_T4_EES9_T3_SA_, symObjAddr: 0x1260, symBinAddr: 0x100004EA4, symSize: 0x44 }
  - { offsetInCU: 0x731C, offset: 0x731C, size: 0x8, addend: 0x0, symName: __ZNSt3__121__unwrap_and_dispatchB7v160006INS_10__overloadINS_11__copy_loopINS_17_ClassicAlgPolicyEEENS_14__copy_trivialEEEPKiS8_PiLi0EEENS_4pairIT0_T2_EESB_T1_SC_, symObjAddr: 0x12A4, symBinAddr: 0x100004EE8, symSize: 0xB4 }
  - { offsetInCU: 0x73AA, offset: 0x73AA, size: 0x8, addend: 0x0, symName: __ZNSt3__114__unwrap_rangeB7v160006IPKiS2_EENS_4pairIT0_S4_EET_S6_, symObjAddr: 0x1358, symBinAddr: 0x100004F9C, symSize: 0x60 }
  - { offsetInCU: 0x757B, offset: 0x757B, size: 0x8, addend: 0x0, symName: __ZNSt3__113__unwrap_iterB7v160006IPiNS_18__unwrap_iter_implIS1_Lb1EEELi0EEEDTclsrT0_8__unwrapclsr3stdE7declvalIT_EEEES5_, symObjAddr: 0x1400, symBinAddr: 0x100005044, symSize: 0x24 }
  - { offsetInCU: 0x75BF, offset: 0x75BF, size: 0x8, addend: 0x0, symName: __ZNSt3__19make_pairB7v160006IPKiPiEENS_4pairINS_18__unwrap_ref_decayIT_E4typeENS5_IT0_E4typeEEEOS6_OS9_, symObjAddr: 0x1424, symBinAddr: 0x100005068, symSize: 0x38 }
  - { offsetInCU: 0x760E, offset: 0x760E, size: 0x8, addend: 0x0, symName: __ZNSt3__114__rewrap_rangeB7v160006IPKiS2_EET_S3_T0_, symObjAddr: 0x145C, symBinAddr: 0x1000050A0, symSize: 0x2C }
  - { offsetInCU: 0x765A, offset: 0x765A, size: 0x8, addend: 0x0, symName: __ZNSt3__113__rewrap_iterB7v160006IPiS1_NS_18__unwrap_iter_implIS1_Lb1EEEEET_S4_T0_, symObjAddr: 0x1488, symBinAddr: 0x1000050CC, symSize: 0x3C }
  - { offsetInCU: 0x76AF, offset: 0x76AF, size: 0x8, addend: 0x0, symName: __ZNSt3__19make_pairB7v160006IPKiS2_EENS_4pairINS_18__unwrap_ref_decayIT_E4typeENS4_IT0_E4typeEEEOS5_OS8_, symObjAddr: 0x14C4, symBinAddr: 0x100005108, symSize: 0x38 }
  - { offsetInCU: 0x76FE, offset: 0x76FE, size: 0x8, addend: 0x0, symName: __ZNSt3__113__unwrap_iterB7v160006IPKiNS_18__unwrap_iter_implIS2_Lb1EEELi0EEEDTclsrT0_8__unwrapclsr3stdE7declvalIT_EEEES6_, symObjAddr: 0x14FC, symBinAddr: 0x100005140, symSize: 0x24 }
  - { offsetInCU: 0x7869, offset: 0x7869, size: 0x8, addend: 0x0, symName: __ZNSt3__112__to_addressB7v160006IKiEEPT_S3_, symObjAddr: 0x15B4, symBinAddr: 0x1000051F8, symSize: 0x14 }
  - { offsetInCU: 0x789E, offset: 0x789E, size: 0x8, addend: 0x0, symName: __ZNSt3__119__copy_trivial_implB7v160006IKiiEENS_4pairIPT_PT0_EES4_S4_S6_, symObjAddr: 0x15C8, symBinAddr: 0x10000520C, symSize: 0x84 }
  - { offsetInCU: 0x7906, offset: 0x7906, size: 0x8, addend: 0x0, symName: __ZNSt3__19make_pairB7v160006IRPKiPiEENS_4pairINS_18__unwrap_ref_decayIT_E4typeENS6_IT0_E4typeEEEOS7_OSA_, symObjAddr: 0x164C, symBinAddr: 0x100005290, symSize: 0x38 }
  - { offsetInCU: 0x79A8, offset: 0x79A8, size: 0x8, addend: 0x0, symName: __ZNSt3__113__rewrap_iterB7v160006IPKiS2_NS_18__unwrap_iter_implIS2_Lb1EEEEET_S5_T0_, symObjAddr: 0x1788, symBinAddr: 0x1000053CC, symSize: 0x3C }
  - { offsetInCU: 0x79FD, offset: 0x79FD, size: 0x8, addend: 0x0, symName: __ZNSt3__118__debug_db_erase_cB7v160006INS_6vectorIiNS_9allocatorIiEEEEEEvPT_, symObjAddr: 0x1A28, symBinAddr: 0x10000566C, symSize: 0x10 }
  - { offsetInCU: 0x7A2E, offset: 0x7A2E, size: 0x8, addend: 0x0, symName: __ZNSt3__119__libcpp_deallocateB7v160006EPvmm, symObjAddr: 0x1BA0, symBinAddr: 0x1000057E4, symSize: 0x60 }
  - { offsetInCU: 0x7A93, offset: 0x7A93, size: 0x8, addend: 0x0, symName: __ZNSt3__127__do_deallocate_handle_sizeB7v160006IJSt11align_val_tEEEvPvmDpT_, symObjAddr: 0x1C00, symBinAddr: 0x100005844, symSize: 0x30 }
  - { offsetInCU: 0x7AE6, offset: 0x7AE6, size: 0x8, addend: 0x0, symName: __ZNSt3__127__do_deallocate_handle_sizeB7v160006IJEEEvPvmDpT_, symObjAddr: 0x1C30, symBinAddr: 0x100005874, symSize: 0x28 }
  - { offsetInCU: 0x7B24, offset: 0x7B24, size: 0x8, addend: 0x0, symName: __ZNSt3__124__libcpp_operator_deleteB7v160006IJPvSt11align_val_tEEEvDpT_, symObjAddr: 0x1C58, symBinAddr: 0x10000589C, symSize: 0x2C }
  - { offsetInCU: 0x7B6D, offset: 0x7B6D, size: 0x8, addend: 0x0, symName: __ZNSt3__124__libcpp_operator_deleteB7v160006IJPvEEEvDpT_, symObjAddr: 0x1C84, symBinAddr: 0x1000058C8, symSize: 0x24 }
  - { offsetInCU: 0x7BA2, offset: 0x7BA2, size: 0x8, addend: 0x0, symName: __ZNSt3__122__make_exception_guardB7v160006INS_6vectorINS_17basic_string_viewIcNS_11char_traitsIcEEEENS_9allocatorIS5_EEE16__destroy_vectorEEENS_28__exception_guard_exceptionsIT_EESB_, symObjAddr: 0x1E4C, symBinAddr: 0x100005A90, symSize: 0x40 }
  - { offsetInCU: 0x7BD7, offset: 0x7BD7, size: 0x8, addend: 0x0, symName: __ZNSt3__119__debug_db_insert_cB7v160006INS_6vectorINS_17basic_string_viewIcNS_11char_traitsIcEEEENS_9allocatorIS5_EEEEEEvPT_, symObjAddr: 0x1EC0, symBinAddr: 0x100005B04, symSize: 0x10 }
  - { offsetInCU: 0x7C08, offset: 0x7C08, size: 0x8, addend: 0x0, symName: __ZNSt3__119__allocate_at_leastB7v160006INS_9allocatorINS_17basic_string_viewIcNS_11char_traitsIcEEEEEEEENS_19__allocation_resultINS_16allocator_traitsIT_E7pointerEEERS9_m, symObjAddr: 0x225C, symBinAddr: 0x100005EA0, symSize: 0x40 }
  - { offsetInCU: 0x7C4B, offset: 0x7C4B, size: 0x8, addend: 0x0, symName: __ZNSt3__112__to_addressB7v160006INS_17basic_string_viewIcNS_11char_traitsIcEEEEEEPT_S6_, symObjAddr: 0x2580, symBinAddr: 0x1000061C4, symSize: 0x14 }
  - { offsetInCU: 0x7C80, offset: 0x7C80, size: 0x8, addend: 0x0, symName: __ZNSt3__130__uninitialized_allocator_copyB7v160006INS_9allocatorINS_17basic_string_viewIcNS_11char_traitsIcEEEEEES5_S5_LPv0EEEPT0_RT_PKS8_SD_S9_, symObjAddr: 0x2630, symBinAddr: 0x100006274, symSize: 0x38 }
  - { offsetInCU: 0x7CF8, offset: 0x7CF8, size: 0x8, addend: 0x0, symName: __ZNSt3__14copyB7v160006IPKNS_17basic_string_viewIcNS_11char_traitsIcEEEEPS4_EET0_T_S9_S8_, symObjAddr: 0x26D8, symBinAddr: 0x10000631C, symSize: 0x40 }
  - { offsetInCU: 0x7D52, offset: 0x7D52, size: 0x8, addend: 0x0, symName: __ZNSt3__16__copyB7v160006INS_17_ClassicAlgPolicyEPKNS_17basic_string_viewIcNS_11char_traitsIcEEEES7_PS5_EENS_4pairIT0_T2_EESA_T1_SB_, symObjAddr: 0x2718, symBinAddr: 0x10000635C, symSize: 0x44 }
  - { offsetInCU: 0x7DBE, offset: 0x7DBE, size: 0x8, addend: 0x0, symName: __ZNSt3__123__dispatch_copy_or_moveB7v160006INS_17_ClassicAlgPolicyENS_11__copy_loopIS1_EENS_14__copy_trivialEPKNS_17basic_string_viewIcNS_11char_traitsIcEEEESA_PS8_EENS_4pairIT2_T4_EESD_T3_SE_, symObjAddr: 0x275C, symBinAddr: 0x1000063A0, symSize: 0x44 }
  - { offsetInCU: 0x7E3C, offset: 0x7E3C, size: 0x8, addend: 0x0, symName: __ZNSt3__121__unwrap_and_dispatchB7v160006INS_10__overloadINS_11__copy_loopINS_17_ClassicAlgPolicyEEENS_14__copy_trivialEEEPKNS_17basic_string_viewIcNS_11char_traitsIcEEEESC_PSA_Li0EEENS_4pairIT0_T2_EESF_T1_SG_, symObjAddr: 0x27A0, symBinAddr: 0x1000063E4, symSize: 0xB4 }
  - { offsetInCU: 0x7ECA, offset: 0x7ECA, size: 0x8, addend: 0x0, symName: __ZNSt3__114__unwrap_rangeB7v160006IPKNS_17basic_string_viewIcNS_11char_traitsIcEEEES6_EENS_4pairIT0_S8_EET_SA_, symObjAddr: 0x2854, symBinAddr: 0x100006498, symSize: 0x60 }
  - { offsetInCU: 0x8019, offset: 0x8019, size: 0x8, addend: 0x0, symName: __ZNSt3__113__unwrap_iterB7v160006IPNS_17basic_string_viewIcNS_11char_traitsIcEEEENS_18__unwrap_iter_implIS5_Lb1EEELi0EEEDTclsrT0_8__unwrapclsr3stdE7declvalIT_EEEES9_, symObjAddr: 0x28FC, symBinAddr: 0x100006540, symSize: 0x24 }
  - { offsetInCU: 0x805D, offset: 0x805D, size: 0x8, addend: 0x0, symName: __ZNSt3__19make_pairB7v160006IPKNS_17basic_string_viewIcNS_11char_traitsIcEEEEPS4_EENS_4pairINS_18__unwrap_ref_decayIT_E4typeENS9_IT0_E4typeEEEOSA_OSD_, symObjAddr: 0x2920, symBinAddr: 0x100006564, symSize: 0x38 }
  - { offsetInCU: 0x80AC, offset: 0x80AC, size: 0x8, addend: 0x0, symName: __ZNSt3__114__rewrap_rangeB7v160006IPKNS_17basic_string_viewIcNS_11char_traitsIcEEEES6_EET_S7_T0_, symObjAddr: 0x2958, symBinAddr: 0x10000659C, symSize: 0x2C }
  - { offsetInCU: 0x80F8, offset: 0x80F8, size: 0x8, addend: 0x0, symName: __ZNSt3__113__rewrap_iterB7v160006IPNS_17basic_string_viewIcNS_11char_traitsIcEEEES5_NS_18__unwrap_iter_implIS5_Lb1EEEEET_S8_T0_, symObjAddr: 0x2984, symBinAddr: 0x1000065C8, symSize: 0x3C }
  - { offsetInCU: 0x814D, offset: 0x814D, size: 0x8, addend: 0x0, symName: __ZNSt3__19make_pairB7v160006IPKNS_17basic_string_viewIcNS_11char_traitsIcEEEES6_EENS_4pairINS_18__unwrap_ref_decayIT_E4typeENS8_IT0_E4typeEEEOS9_OSC_, symObjAddr: 0x29C0, symBinAddr: 0x100006604, symSize: 0x38 }
  - { offsetInCU: 0x819C, offset: 0x819C, size: 0x8, addend: 0x0, symName: __ZNSt3__113__unwrap_iterB7v160006IPKNS_17basic_string_viewIcNS_11char_traitsIcEEEENS_18__unwrap_iter_implIS6_Lb1EEELi0EEEDTclsrT0_8__unwrapclsr3stdE7declvalIT_EEEESA_, symObjAddr: 0x29F8, symBinAddr: 0x10000663C, symSize: 0x24 }
  - { offsetInCU: 0x8307, offset: 0x8307, size: 0x8, addend: 0x0, symName: __ZNSt3__112__to_addressB7v160006IKNS_17basic_string_viewIcNS_11char_traitsIcEEEEEEPT_S7_, symObjAddr: 0x2AB0, symBinAddr: 0x1000066F4, symSize: 0x14 }
  - { offsetInCU: 0x833C, offset: 0x833C, size: 0x8, addend: 0x0, symName: __ZNSt3__119__copy_trivial_implB7v160006IKNS_17basic_string_viewIcNS_11char_traitsIcEEEES4_EENS_4pairIPT_PT0_EES8_S8_SA_, symObjAddr: 0x2AC4, symBinAddr: 0x100006708, symSize: 0x84 }
  - { offsetInCU: 0x83A4, offset: 0x83A4, size: 0x8, addend: 0x0, symName: __ZNSt3__19make_pairB7v160006IRPKNS_17basic_string_viewIcNS_11char_traitsIcEEEEPS4_EENS_4pairINS_18__unwrap_ref_decayIT_E4typeENSA_IT0_E4typeEEEOSB_OSE_, symObjAddr: 0x2B48, symBinAddr: 0x10000678C, symSize: 0x38 }
  - { offsetInCU: 0x8446, offset: 0x8446, size: 0x8, addend: 0x0, symName: __ZNSt3__113__rewrap_iterB7v160006IPKNS_17basic_string_viewIcNS_11char_traitsIcEEEES6_NS_18__unwrap_iter_implIS6_Lb1EEEEET_S9_T0_, symObjAddr: 0x2C84, symBinAddr: 0x1000068C8, symSize: 0x3C }
  - { offsetInCU: 0x849B, offset: 0x849B, size: 0x8, addend: 0x0, symName: __ZNSt3__118__debug_db_erase_cB7v160006INS_6vectorINS_17basic_string_viewIcNS_11char_traitsIcEEEENS_9allocatorIS5_EEEEEEvPT_, symObjAddr: 0x2F24, symBinAddr: 0x100006B68, symSize: 0x10 }
  - { offsetInCU: 0x84CC, offset: 0x84CC, size: 0x8, addend: 0x0, symName: __ZNSt3__116__pad_and_outputB7v160006IcNS_11char_traitsIcEEEENS_19ostreambuf_iteratorIT_T0_EES6_PKS4_S8_S8_RNS_8ios_baseES4_, symObjAddr: 0x3318, symBinAddr: 0x100006F5C, symSize: 0x240 }
  - { offsetInCU: 0x859B, offset: 0x859B, size: 0x8, addend: 0x0, symName: __ZNSt3__119__debug_db_insert_cB7v160006INS_12basic_stringIcNS_11char_traitsIcEENS_9allocatorIcEEEEEEvPT_, symObjAddr: 0x37CC, symBinAddr: 0x100007410, symSize: 0x10 }
  - { offsetInCU: 0x85CC, offset: 0x85CC, size: 0x8, addend: 0x0, symName: __ZNSt3__112__to_addressB7v160006IcEEPT_S2_, symObjAddr: 0x3898, symBinAddr: 0x1000074DC, symSize: 0x14 }
  - { offsetInCU: 0x8634, offset: 0x8634, size: 0x8, addend: 0x0, symName: __ZNSt3__19use_facetB7v160006INS_5ctypeIcEEEERKT_RKNS_6localeE, symObjAddr: 0x3B50, symBinAddr: 0x100007794, symSize: 0x2C }
  - { offsetInCU: 0x8EDA, offset: 0x8EDA, size: 0x8, addend: 0x0, symName: __ZSt28__throw_bad_array_new_lengthB7v160006v, symObjAddr: 0xE88, symBinAddr: 0x100004ACC, symSize: 0x34 }
  - { offsetInCU: 0xB63C, offset: 0xB63C, size: 0x8, addend: 0x0, symName: __Z8fizzbuzzi, symObjAddr: 0x0, symBinAddr: 0x100003C44, symSize: 0x2BC }
  - { offsetInCU: 0xB6E3, offset: 0xB6E3, size: 0x8, addend: 0x0, symName: __ZNSt3__16vectorIiNS_9allocatorIiEEEC1B7v160006ESt16initializer_listIiE, symObjAddr: 0x2BC, symBinAddr: 0x100003F00, symSize: 0x3C }
  - { offsetInCU: 0xB71E, offset: 0xB71E, size: 0x8, addend: 0x0, symName: __ZNSt3__16vectorINS_17basic_string_viewIcNS_11char_traitsIcEEEENS_9allocatorIS4_EEEC1B7v160006ESt16initializer_listIS4_E, symObjAddr: 0x2F8, symBinAddr: 0x100003F3C, symSize: 0x3C }
  - { offsetInCU: 0xB759, offset: 0xB759, size: 0x8, addend: 0x0, symName: __ZNSt3__16vectorIiNS_9allocatorIiEEEixB7v160006Em, symObjAddr: 0x37C, symBinAddr: 0x100003FC0, symSize: 0x24 }
  - { offsetInCU: 0xB790, offset: 0xB790, size: 0x8, addend: 0x0, symName: __ZNSt3__16vectorINS_17basic_string_viewIcNS_11char_traitsIcEEEENS_9allocatorIS4_EEEixB7v160006Em, symObjAddr: 0x3FC, symBinAddr: 0x100004040, symSize: 0x24 }
  - { offsetInCU: 0xB7C7, offset: 0xB7C7, size: 0x8, addend: 0x0, symName: __ZNSt3__16vectorINS_17basic_string_viewIcNS_11char_traitsIcEEEENS_9allocatorIS4_EEED1B7v160006Ev, symObjAddr: 0x454, symBinAddr: 0x100004098, symSize: 0x2C }
  - { offsetInCU: 0xB7F1, offset: 0xB7F1, size: 0x8, addend: 0x0, symName: __ZNSt3__16vectorIiNS_9allocatorIiEEED1B7v160006Ev, symObjAddr: 0x480, symBinAddr: 0x1000040C4, symSize: 0x2C }
  - { offsetInCU: 0xB81B, offset: 0xB81B, size: 0x8, addend: 0x0, symName: _main, symObjAddr: 0x4AC, symBinAddr: 0x1000040F0, symSize: 0x30 }
  - { offsetInCU: 0xB835, offset: 0xB835, size: 0x8, addend: 0x0, symName: __ZNKSt3__16vectorIiNS_9allocatorIiEEE4sizeB7v160006Ev, symObjAddr: 0x4DC, symBinAddr: 0x100004120, symSize: 0x28 }
  - { offsetInCU: 0xB85B, offset: 0xB85B, size: 0x8, addend: 0x0, symName: __ZNKSt3__16vectorINS_17basic_string_viewIcNS_11char_traitsIcEEEENS_9allocatorIS4_EEE4sizeB7v160006Ev, symObjAddr: 0x504, symBinAddr: 0x100004148, symSize: 0x28 }
  - { offsetInCU: 0xB881, offset: 0xB881, size: 0x8, addend: 0x0, symName: __ZNSt3__16vectorIiNS_9allocatorIiEEEC2B7v160006ESt16initializer_listIiE, symObjAddr: 0x52C, symBinAddr: 0x100004170, symSize: 0x124 }
  - { offsetInCU: 0xB8DC, offset: 0xB8DC, size: 0x8, addend: 0x0, symName: __ZNSt3__117__compressed_pairIPiNS_9allocatorIiEEEC1B7v160006IDnNS_18__default_init_tagEEEOT_OT0_, symObjAddr: 0x650, symBinAddr: 0x100004294, symSize: 0x3C }
  - { offsetInCU: 0xB934, offset: 0xB934, size: 0x8, addend: 0x0, symName: __ZNSt3__16vectorIiNS_9allocatorIiEEE16__destroy_vectorC1ERS3_, symObjAddr: 0x6CC, symBinAddr: 0x100004310, symSize: 0x34 }
  - { offsetInCU: 0xB96D, offset: 0xB96D, size: 0x8, addend: 0x0, symName: __ZNKSt16initializer_listIiE4sizeB7v160006Ev, symObjAddr: 0x710, symBinAddr: 0x100004354, symSize: 0x18 }
  - { offsetInCU: 0xB993, offset: 0xB993, size: 0x8, addend: 0x0, symName: __ZNSt3__16vectorIiNS_9allocatorIiEEE11__vallocateB7v160006Em, symObjAddr: 0x728, symBinAddr: 0x10000436C, symSize: 0xAC }
  - { offsetInCU: 0xB9D7, offset: 0xB9D7, size: 0x8, addend: 0x0, symName: __ZNSt3__16vectorIiNS_9allocatorIiEEE18__construct_at_endIPKiLi0EEEvT_S7_m, symObjAddr: 0x7D4, symBinAddr: 0x100004418, symSize: 0x8C }
  - { offsetInCU: 0xBA4A, offset: 0xBA4A, size: 0x8, addend: 0x0, symName: __ZNKSt16initializer_listIiE5beginB7v160006Ev, symObjAddr: 0x860, symBinAddr: 0x1000044A4, symSize: 0x18 }
  - { offsetInCU: 0xBA70, offset: 0xBA70, size: 0x8, addend: 0x0, symName: __ZNKSt16initializer_listIiE3endB7v160006Ev, symObjAddr: 0x878, symBinAddr: 0x1000044BC, symSize: 0x20 }
  - { offsetInCU: 0xBA96, offset: 0xBA96, size: 0x8, addend: 0x0, symName: __ZNSt3__128__exception_guard_exceptionsINS_6vectorIiNS_9allocatorIiEEE16__destroy_vectorEE10__completeB7v160006Ev, symObjAddr: 0x898, symBinAddr: 0x1000044DC, symSize: 0x1C }
  - { offsetInCU: 0xBABC, offset: 0xBABC, size: 0x8, addend: 0x0, symName: __ZNSt3__128__exception_guard_exceptionsINS_6vectorIiNS_9allocatorIiEEE16__destroy_vectorEED1B7v160006Ev, symObjAddr: 0x8B4, symBinAddr: 0x1000044F8, symSize: 0x2C }
  - { offsetInCU: 0xBAE6, offset: 0xBAE6, size: 0x8, addend: 0x0, symName: __ZNSt3__117__compressed_pairIPiNS_9allocatorIiEEEC2B7v160006IDnNS_18__default_init_tagEEEOT_OT0_, symObjAddr: 0x8E0, symBinAddr: 0x100004524, symSize: 0x40 }
  - { offsetInCU: 0xBB3E, offset: 0xBB3E, size: 0x8, addend: 0x0, symName: __ZNSt3__122__compressed_pair_elemIPiLi0ELb0EEC2B7v160006IDnvEEOT_, symObjAddr: 0x920, symBinAddr: 0x100004564, symSize: 0x1C }
  - { offsetInCU: 0xBB80, offset: 0xBB80, size: 0x8, addend: 0x0, symName: __ZNSt3__122__compressed_pair_elemINS_9allocatorIiEELi1ELb1EEC2B7v160006ENS_18__default_init_tagE, symObjAddr: 0x93C, symBinAddr: 0x100004580, symSize: 0x2C }
  - { offsetInCU: 0xBBB5, offset: 0xBBB5, size: 0x8, addend: 0x0, symName: __ZNSt3__19allocatorIiEC2B7v160006Ev, symObjAddr: 0x968, symBinAddr: 0x1000045AC, symSize: 0x2C }
  - { offsetInCU: 0xBBDF, offset: 0xBBDF, size: 0x8, addend: 0x0, symName: __ZNSt3__116__non_trivial_ifILb1ENS_9allocatorIiEEEC2B7v160006Ev, symObjAddr: 0x994, symBinAddr: 0x1000045D8, symSize: 0x14 }
  - { offsetInCU: 0xBC09, offset: 0xBC09, size: 0x8, addend: 0x0, symName: __ZNSt3__128__exception_guard_exceptionsINS_6vectorIiNS_9allocatorIiEEE16__destroy_vectorEEC1B7v160006ES5_, symObjAddr: 0x9A8, symBinAddr: 0x1000045EC, symSize: 0x34 }
  - { offsetInCU: 0xBC41, offset: 0xBC41, size: 0x8, addend: 0x0, symName: __ZNSt3__128__exception_guard_exceptionsINS_6vectorIiNS_9allocatorIiEEE16__destroy_vectorEEC2B7v160006ES5_, symObjAddr: 0x9DC, symBinAddr: 0x100004620, symSize: 0x24 }
  - { offsetInCU: 0xBC79, offset: 0xBC79, size: 0x8, addend: 0x0, symName: __ZNSt3__16vectorIiNS_9allocatorIiEEE16__destroy_vectorC2ERS3_, symObjAddr: 0xA00, symBinAddr: 0x100004644, symSize: 0x20 }
  - { offsetInCU: 0xBCB2, offset: 0xBCB2, size: 0x8, addend: 0x0, symName: __ZNKSt3__16vectorIiNS_9allocatorIiEEE8max_sizeEv, symObjAddr: 0xA20, symBinAddr: 0x100004664, symSize: 0x60 }
  - { offsetInCU: 0xBCDA, offset: 0xBCDA, size: 0x8, addend: 0x0, symName: __ZNKSt3__16vectorIiNS_9allocatorIiEEE20__throw_length_errorB7v160006Ev, symObjAddr: 0xA80, symBinAddr: 0x1000046C4, symSize: 0x1C }
  - { offsetInCU: 0xBD00, offset: 0xBD00, size: 0x8, addend: 0x0, symName: __ZNSt3__16vectorIiNS_9allocatorIiEEE7__allocB7v160006Ev, symObjAddr: 0xADC, symBinAddr: 0x100004720, symSize: 0x28 }
  - { offsetInCU: 0xBD26, offset: 0xBD26, size: 0x8, addend: 0x0, symName: __ZNSt3__16vectorIiNS_9allocatorIiEEE9__end_capB7v160006Ev, symObjAddr: 0xB04, symBinAddr: 0x100004748, symSize: 0x28 }
  - { offsetInCU: 0xBD4C, offset: 0xBD4C, size: 0x8, addend: 0x0, symName: __ZNKSt3__16vectorIiNS_9allocatorIiEEE14__annotate_newB7v160006Em, symObjAddr: 0xB2C, symBinAddr: 0x100004770, symSize: 0xAC }
  - { offsetInCU: 0xBD8B, offset: 0xBD8B, size: 0x8, addend: 0x0, symName: __ZNSt3__116allocator_traitsINS_9allocatorIiEEE8max_sizeB7v160006IS2_vEEmRKS2_, symObjAddr: 0xC04, symBinAddr: 0x100004848, symSize: 0x24 }
  - { offsetInCU: 0xBDB9, offset: 0xBDB9, size: 0x8, addend: 0x0, symName: __ZNKSt3__16vectorIiNS_9allocatorIiEEE7__allocB7v160006Ev, symObjAddr: 0xC28, symBinAddr: 0x10000486C, symSize: 0x28 }
  - { offsetInCU: 0xBDDF, offset: 0xBDDF, size: 0x8, addend: 0x0, symName: __ZNSt3__114numeric_limitsIlE3maxB7v160006Ev, symObjAddr: 0xC50, symBinAddr: 0x100004894, symSize: 0x14 }
  - { offsetInCU: 0xBE07, offset: 0xBE07, size: 0x8, addend: 0x0, symName: __ZNKSt3__16__lessImmEclB7v160006ERKmS3_, symObjAddr: 0xCC4, symBinAddr: 0x100004908, symSize: 0x34 }
  - { offsetInCU: 0xBE49, offset: 0xBE49, size: 0x8, addend: 0x0, symName: __ZNKSt3__19allocatorIiE8max_sizeB7v160006Ev, symObjAddr: 0xCF8, symBinAddr: 0x10000493C, symSize: 0x14 }
  - { offsetInCU: 0xBE6F, offset: 0xBE6F, size: 0x8, addend: 0x0, symName: __ZNKSt3__117__compressed_pairIPiNS_9allocatorIiEEE6secondB7v160006Ev, symObjAddr: 0xD0C, symBinAddr: 0x100004950, symSize: 0x24 }
  - { offsetInCU: 0xBE95, offset: 0xBE95, size: 0x8, addend: 0x0, symName: __ZNKSt3__122__compressed_pair_elemINS_9allocatorIiEELi1ELb1EE5__getB7v160006Ev, symObjAddr: 0xD30, symBinAddr: 0x100004974, symSize: 0x14 }
  - { offsetInCU: 0xBEBB, offset: 0xBEBB, size: 0x8, addend: 0x0, symName: __ZNSt3__123__libcpp_numeric_limitsIlLb1EE3maxB7v160006Ev, symObjAddr: 0xD44, symBinAddr: 0x100004988, symSize: 0x8 }
  - { offsetInCU: 0xBECF, offset: 0xBECF, size: 0x8, addend: 0x0, symName: __ZNSt12length_errorC1B7v160006EPKc, symObjAddr: 0xDB0, symBinAddr: 0x1000049F4, symSize: 0x34 }
  - { offsetInCU: 0xBF07, offset: 0xBF07, size: 0x8, addend: 0x0, symName: __ZNSt12length_errorC2B7v160006EPKc, symObjAddr: 0xDE4, symBinAddr: 0x100004A28, symSize: 0x4C }
  - { offsetInCU: 0xBF3F, offset: 0xBF3F, size: 0x8, addend: 0x0, symName: __ZNSt3__19allocatorIiE8allocateB7v160006Em, symObjAddr: 0xE30, symBinAddr: 0x100004A74, symSize: 0x58 }
  - { offsetInCU: 0xBF73, offset: 0xBF73, size: 0x8, addend: 0x0, symName: __ZNSt3__117__compressed_pairIPiNS_9allocatorIiEEE6secondB7v160006Ev, symObjAddr: 0xF8C, symBinAddr: 0x100004BD0, symSize: 0x24 }
  - { offsetInCU: 0xBF99, offset: 0xBF99, size: 0x8, addend: 0x0, symName: __ZNSt3__122__compressed_pair_elemINS_9allocatorIiEELi1ELb1EE5__getB7v160006Ev, symObjAddr: 0xFB0, symBinAddr: 0x100004BF4, symSize: 0x14 }
  - { offsetInCU: 0xBFBF, offset: 0xBFBF, size: 0x8, addend: 0x0, symName: __ZNSt3__117__compressed_pairIPiNS_9allocatorIiEEE5firstB7v160006Ev, symObjAddr: 0xFC4, symBinAddr: 0x100004C08, symSize: 0x24 }
  - { offsetInCU: 0xBFE5, offset: 0xBFE5, size: 0x8, addend: 0x0, symName: __ZNSt3__122__compressed_pair_elemIPiLi0ELb0EE5__getB7v160006Ev, symObjAddr: 0xFE8, symBinAddr: 0x100004C2C, symSize: 0x14 }
  - { offsetInCU: 0xC00B, offset: 0xC00B, size: 0x8, addend: 0x0, symName: __ZNKSt3__16vectorIiNS_9allocatorIiEEE31__annotate_contiguous_containerB7v160006EPKvS5_S5_S5_, symObjAddr: 0xFFC, symBinAddr: 0x100004C40, symSize: 0x20 }
  - { offsetInCU: 0xC05D, offset: 0xC05D, size: 0x8, addend: 0x0, symName: __ZNKSt3__16vectorIiNS_9allocatorIiEEE4dataB7v160006Ev, symObjAddr: 0x101C, symBinAddr: 0x100004C60, symSize: 0x28 }
  - { offsetInCU: 0xC083, offset: 0xC083, size: 0x8, addend: 0x0, symName: __ZNKSt3__16vectorIiNS_9allocatorIiEEE8capacityB7v160006Ev, symObjAddr: 0x1044, symBinAddr: 0x100004C88, symSize: 0x40 }
  - { offsetInCU: 0xC0A9, offset: 0xC0A9, size: 0x8, addend: 0x0, symName: __ZNKSt3__16vectorIiNS_9allocatorIiEEE9__end_capB7v160006Ev, symObjAddr: 0x1098, symBinAddr: 0x100004CDC, symSize: 0x28 }
  - { offsetInCU: 0xC0CF, offset: 0xC0CF, size: 0x8, addend: 0x0, symName: __ZNKSt3__117__compressed_pairIPiNS_9allocatorIiEEE5firstB7v160006Ev, symObjAddr: 0x10C0, symBinAddr: 0x100004D04, symSize: 0x24 }
  - { offsetInCU: 0xC0F5, offset: 0xC0F5, size: 0x8, addend: 0x0, symName: __ZNKSt3__122__compressed_pair_elemIPiLi0ELb0EE5__getB7v160006Ev, symObjAddr: 0x10E4, symBinAddr: 0x100004D28, symSize: 0x14 }
  - { offsetInCU: 0xC134, offset: 0xC134, size: 0x8, addend: 0x0, symName: __ZNSt3__16vectorIiNS_9allocatorIiEEE21_ConstructTransactionC1B7v160006ERS3_m, symObjAddr: 0x10F8, symBinAddr: 0x100004D3C, symSize: 0x3C }
  - { offsetInCU: 0xC17C, offset: 0xC17C, size: 0x8, addend: 0x0, symName: __ZNSt3__16vectorIiNS_9allocatorIiEEE21_ConstructTransactionD1B7v160006Ev, symObjAddr: 0x116C, symBinAddr: 0x100004DB0, symSize: 0x2C }
  - { offsetInCU: 0xC1A6, offset: 0xC1A6, size: 0x8, addend: 0x0, symName: __ZNSt3__16vectorIiNS_9allocatorIiEEE21_ConstructTransactionC2B7v160006ERS3_m, symObjAddr: 0x1198, symBinAddr: 0x100004DDC, symSize: 0x44 }
  - { offsetInCU: 0xC211, offset: 0xC211, size: 0x8, addend: 0x0, symName: __ZNKSt3__114__copy_trivialclB7v160006IKiiLi0EEENS_4pairIPT_PT0_EES5_S5_S7_, symObjAddr: 0x13B8, symBinAddr: 0x100004FFC, symSize: 0x48 }
  - { offsetInCU: 0xC297, offset: 0xC297, size: 0x8, addend: 0x0, symName: __ZNSt3__14pairIPKiS2_EC1B7v160006IS2_S2_LPv0EEEOT_OT0_, symObjAddr: 0x1520, symBinAddr: 0x100005164, symSize: 0x3C }
  - { offsetInCU: 0xC2F5, offset: 0xC2F5, size: 0x8, addend: 0x0, symName: __ZNSt3__14pairIPKiS2_EC2B7v160006IS2_S2_LPv0EEEOT_OT0_, symObjAddr: 0x155C, symBinAddr: 0x1000051A0, symSize: 0x34 }
  - { offsetInCU: 0xC353, offset: 0xC353, size: 0x8, addend: 0x0, symName: __ZNSt3__118__unwrap_iter_implIPKiLb1EE8__unwrapB7v160006ES2_, symObjAddr: 0x1590, symBinAddr: 0x1000051D4, symSize: 0x24 }
  - { offsetInCU: 0xC380, offset: 0xC380, size: 0x8, addend: 0x0, symName: __ZNSt3__14pairIPKiPiEC1B7v160006IRS2_S3_LPv0EEEOT_OT0_, symObjAddr: 0x1684, symBinAddr: 0x1000052C8, symSize: 0x3C }
  - { offsetInCU: 0xC3DE, offset: 0xC3DE, size: 0x8, addend: 0x0, symName: __ZNSt3__14pairIPKiPiEC2B7v160006IRS2_S3_LPv0EEEOT_OT0_, symObjAddr: 0x16C0, symBinAddr: 0x100005304, symSize: 0x34 }
  - { offsetInCU: 0xC43C, offset: 0xC43C, size: 0x8, addend: 0x0, symName: __ZNSt3__118__unwrap_iter_implIPiLb1EE8__unwrapB7v160006ES1_, symObjAddr: 0x16F4, symBinAddr: 0x100005338, symSize: 0x24 }
  - { offsetInCU: 0xC45F, offset: 0xC45F, size: 0x8, addend: 0x0, symName: __ZNSt3__14pairIPKiPiEC1B7v160006IS2_S3_LPv0EEEOT_OT0_, symObjAddr: 0x1718, symBinAddr: 0x10000535C, symSize: 0x3C }
  - { offsetInCU: 0xC4BD, offset: 0xC4BD, size: 0x8, addend: 0x0, symName: __ZNSt3__14pairIPKiPiEC2B7v160006IS2_S3_LPv0EEEOT_OT0_, symObjAddr: 0x1754, symBinAddr: 0x100005398, symSize: 0x34 }
  - { offsetInCU: 0xC51B, offset: 0xC51B, size: 0x8, addend: 0x0, symName: __ZNSt3__118__unwrap_iter_implIPKiLb1EE8__rewrapB7v160006ES2_S2_, symObjAddr: 0x17C4, symBinAddr: 0x100005408, symSize: 0x50 }
  - { offsetInCU: 0xC54C, offset: 0xC54C, size: 0x8, addend: 0x0, symName: __ZNSt3__118__unwrap_iter_implIPiLb1EE8__rewrapB7v160006ES1_S1_, symObjAddr: 0x1814, symBinAddr: 0x100005458, symSize: 0x50 }
  - { offsetInCU: 0xC57D, offset: 0xC57D, size: 0x8, addend: 0x0, symName: __ZNSt3__16vectorIiNS_9allocatorIiEEE21_ConstructTransactionD2B7v160006Ev, symObjAddr: 0x1864, symBinAddr: 0x1000054A8, symSize: 0x20 }
  - { offsetInCU: 0xC5A7, offset: 0xC5A7, size: 0x8, addend: 0x0, symName: __ZNSt3__128__exception_guard_exceptionsINS_6vectorIiNS_9allocatorIiEEE16__destroy_vectorEED2B7v160006Ev, symObjAddr: 0x1884, symBinAddr: 0x1000054C8, symSize: 0x50 }
  - { offsetInCU: 0xC5D1, offset: 0xC5D1, size: 0x8, addend: 0x0, symName: __ZNSt3__16vectorIiNS_9allocatorIiEEE16__destroy_vectorclB7v160006Ev, symObjAddr: 0x18D4, symBinAddr: 0x100005518, symSize: 0x9C }
  - { offsetInCU: 0xC5F7, offset: 0xC5F7, size: 0x8, addend: 0x0, symName: __ZNKSt3__16vectorIiNS_9allocatorIiEEE17__annotate_deleteB7v160006Ev, symObjAddr: 0x1970, symBinAddr: 0x1000055B4, symSize: 0xB8 }
  - { offsetInCU: 0xC61D, offset: 0xC61D, size: 0x8, addend: 0x0, symName: __ZNSt3__16vectorIiNS_9allocatorIiEEE7__clearB7v160006Ev, symObjAddr: 0x1A38, symBinAddr: 0x10000567C, symSize: 0x28 }
  - { offsetInCU: 0xC643, offset: 0xC643, size: 0x8, addend: 0x0, symName: __ZNSt3__116allocator_traitsINS_9allocatorIiEEE10deallocateB7v160006ERS2_Pim, symObjAddr: 0x1A60, symBinAddr: 0x1000056A4, symSize: 0x34 }
  - { offsetInCU: 0xC685, offset: 0xC685, size: 0x8, addend: 0x0, symName: __ZNSt3__16vectorIiNS_9allocatorIiEEE22__base_destruct_at_endB7v160006EPi, symObjAddr: 0x1A94, symBinAddr: 0x1000056D8, symSize: 0x8C }
  - { offsetInCU: 0xC6C9, offset: 0xC6C9, size: 0x8, addend: 0x0, symName: __ZNSt3__116allocator_traitsINS_9allocatorIiEEE7destroyB7v160006IivEEvRS2_PT_, symObjAddr: 0x1B20, symBinAddr: 0x100005764, symSize: 0x2C }
  - { offsetInCU: 0xC706, offset: 0xC706, size: 0x8, addend: 0x0, symName: __ZNSt3__19allocatorIiE7destroyB7v160006EPi, symObjAddr: 0x1B4C, symBinAddr: 0x100005790, symSize: 0x14 }
  - { offsetInCU: 0xC73A, offset: 0xC73A, size: 0x8, addend: 0x0, symName: __ZNSt3__19allocatorIiE10deallocateB7v160006EPim, symObjAddr: 0x1B60, symBinAddr: 0x1000057A4, symSize: 0x40 }
  - { offsetInCU: 0xC77C, offset: 0xC77C, size: 0x8, addend: 0x0, symName: __ZNSt3__16vectorIiNS_9allocatorIiEEED2B7v160006Ev, symObjAddr: 0x1CA8, symBinAddr: 0x1000058EC, symSize: 0x44 }
  - { offsetInCU: 0xC7A6, offset: 0xC7A6, size: 0x8, addend: 0x0, symName: __ZNSt3__16vectorINS_17basic_string_viewIcNS_11char_traitsIcEEEENS_9allocatorIS4_EEEC2B7v160006ESt16initializer_listIS4_E, symObjAddr: 0x1CEC, symBinAddr: 0x100005930, symSize: 0x124 }
  - { offsetInCU: 0xC7F7, offset: 0xC7F7, size: 0x8, addend: 0x0, symName: __ZNSt3__117__compressed_pairIPNS_17basic_string_viewIcNS_11char_traitsIcEEEENS_9allocatorIS4_EEEC1B7v160006IDnNS_18__default_init_tagEEEOT_OT0_, symObjAddr: 0x1E10, symBinAddr: 0x100005A54, symSize: 0x3C }
  - { offsetInCU: 0xC84F, offset: 0xC84F, size: 0x8, addend: 0x0, symName: __ZNSt3__16vectorINS_17basic_string_viewIcNS_11char_traitsIcEEEENS_9allocatorIS4_EEE16__destroy_vectorC1ERS7_, symObjAddr: 0x1E8C, symBinAddr: 0x100005AD0, symSize: 0x34 }
  - { offsetInCU: 0xC888, offset: 0xC888, size: 0x8, addend: 0x0, symName: __ZNKSt16initializer_listINSt3__117basic_string_viewIcNS0_11char_traitsIcEEEEE4sizeB7v160006Ev, symObjAddr: 0x1ED0, symBinAddr: 0x100005B14, symSize: 0x18 }
  - { offsetInCU: 0xC8AE, offset: 0xC8AE, size: 0x8, addend: 0x0, symName: __ZNSt3__16vectorINS_17basic_string_viewIcNS_11char_traitsIcEEEENS_9allocatorIS4_EEE11__vallocateB7v160006Em, symObjAddr: 0x1EE8, symBinAddr: 0x100005B2C, symSize: 0xAC }
  - { offsetInCU: 0xC8F2, offset: 0xC8F2, size: 0x8, addend: 0x0, symName: __ZNSt3__16vectorINS_17basic_string_viewIcNS_11char_traitsIcEEEENS_9allocatorIS4_EEE18__construct_at_endIPKS4_Li0EEEvT_SB_m, symObjAddr: 0x1F94, symBinAddr: 0x100005BD8, symSize: 0x8C }
  - { offsetInCU: 0xC965, offset: 0xC965, size: 0x8, addend: 0x0, symName: __ZNKSt16initializer_listINSt3__117basic_string_viewIcNS0_11char_traitsIcEEEEE5beginB7v160006Ev, symObjAddr: 0x2020, symBinAddr: 0x100005C64, symSize: 0x18 }
  - { offsetInCU: 0xC98B, offset: 0xC98B, size: 0x8, addend: 0x0, symName: __ZNKSt16initializer_listINSt3__117basic_string_viewIcNS0_11char_traitsIcEEEEE3endB7v160006Ev, symObjAddr: 0x2038, symBinAddr: 0x100005C7C, symSize: 0x20 }
  - { offsetInCU: 0xC9B1, offset: 0xC9B1, size: 0x8, addend: 0x0, symName: __ZNSt3__128__exception_guard_exceptionsINS_6vectorINS_17basic_string_viewIcNS_11char_traitsIcEEEENS_9allocatorIS5_EEE16__destroy_vectorEE10__completeB7v160006Ev, symObjAddr: 0x2058, symBinAddr: 0x100005C9C, symSize: 0x1C }
  - { offsetInCU: 0xC9D7, offset: 0xC9D7, size: 0x8, addend: 0x0, symName: __ZNSt3__128__exception_guard_exceptionsINS_6vectorINS_17basic_string_viewIcNS_11char_traitsIcEEEENS_9allocatorIS5_EEE16__destroy_vectorEED1B7v160006Ev, symObjAddr: 0x2074, symBinAddr: 0x100005CB8, symSize: 0x2C }
  - { offsetInCU: 0xCA01, offset: 0xCA01, size: 0x8, addend: 0x0, symName: __ZNSt3__117__compressed_pairIPNS_17basic_string_viewIcNS_11char_traitsIcEEEENS_9allocatorIS4_EEEC2B7v160006IDnNS_18__default_init_tagEEEOT_OT0_, symObjAddr: 0x20A0, symBinAddr: 0x100005CE4, symSize: 0x40 }
  - { offsetInCU: 0xCA59, offset: 0xCA59, size: 0x8, addend: 0x0, symName: __ZNSt3__122__compressed_pair_elemIPNS_17basic_string_viewIcNS_11char_traitsIcEEEELi0ELb0EEC2B7v160006IDnvEEOT_, symObjAddr: 0x20E0, symBinAddr: 0x100005D24, symSize: 0x1C }
  - { offsetInCU: 0xCA9B, offset: 0xCA9B, size: 0x8, addend: 0x0, symName: __ZNSt3__122__compressed_pair_elemINS_9allocatorINS_17basic_string_viewIcNS_11char_traitsIcEEEEEELi1ELb1EEC2B7v160006ENS_18__default_init_tagE, symObjAddr: 0x20FC, symBinAddr: 0x100005D40, symSize: 0x2C }
  - { offsetInCU: 0xCAD0, offset: 0xCAD0, size: 0x8, addend: 0x0, symName: __ZNSt3__19allocatorINS_17basic_string_viewIcNS_11char_traitsIcEEEEEC2B7v160006Ev, symObjAddr: 0x2128, symBinAddr: 0x100005D6C, symSize: 0x2C }
  - { offsetInCU: 0xCAFA, offset: 0xCAFA, size: 0x8, addend: 0x0, symName: __ZNSt3__116__non_trivial_ifILb1ENS_9allocatorINS_17basic_string_viewIcNS_11char_traitsIcEEEEEEEC2B7v160006Ev, symObjAddr: 0x2154, symBinAddr: 0x100005D98, symSize: 0x14 }
  - { offsetInCU: 0xCB24, offset: 0xCB24, size: 0x8, addend: 0x0, symName: __ZNSt3__128__exception_guard_exceptionsINS_6vectorINS_17basic_string_viewIcNS_11char_traitsIcEEEENS_9allocatorIS5_EEE16__destroy_vectorEEC1B7v160006ES9_, symObjAddr: 0x2168, symBinAddr: 0x100005DAC, symSize: 0x34 }
  - { offsetInCU: 0xCB5C, offset: 0xCB5C, size: 0x8, addend: 0x0, symName: __ZNSt3__128__exception_guard_exceptionsINS_6vectorINS_17basic_string_viewIcNS_11char_traitsIcEEEENS_9allocatorIS5_EEE16__destroy_vectorEEC2B7v160006ES9_, symObjAddr: 0x219C, symBinAddr: 0x100005DE0, symSize: 0x24 }
  - { offsetInCU: 0xCB94, offset: 0xCB94, size: 0x8, addend: 0x0, symName: __ZNSt3__16vectorINS_17basic_string_viewIcNS_11char_traitsIcEEEENS_9allocatorIS4_EEE16__destroy_vectorC2ERS7_, symObjAddr: 0x21C0, symBinAddr: 0x100005E04, symSize: 0x20 }
  - { offsetInCU: 0xCBCD, offset: 0xCBCD, size: 0x8, addend: 0x0, symName: __ZNKSt3__16vectorINS_17basic_string_viewIcNS_11char_traitsIcEEEENS_9allocatorIS4_EEE8max_sizeEv, symObjAddr: 0x21E0, symBinAddr: 0x100005E24, symSize: 0x60 }
  - { offsetInCU: 0xCBF5, offset: 0xCBF5, size: 0x8, addend: 0x0, symName: __ZNKSt3__16vectorINS_17basic_string_viewIcNS_11char_traitsIcEEEENS_9allocatorIS4_EEE20__throw_length_errorB7v160006Ev, symObjAddr: 0x2240, symBinAddr: 0x100005E84, symSize: 0x1C }
  - { offsetInCU: 0xCC1B, offset: 0xCC1B, size: 0x8, addend: 0x0, symName: __ZNSt3__16vectorINS_17basic_string_viewIcNS_11char_traitsIcEEEENS_9allocatorIS4_EEE7__allocB7v160006Ev, symObjAddr: 0x229C, symBinAddr: 0x100005EE0, symSize: 0x28 }
  - { offsetInCU: 0xCC41, offset: 0xCC41, size: 0x8, addend: 0x0, symName: __ZNSt3__16vectorINS_17basic_string_viewIcNS_11char_traitsIcEEEENS_9allocatorIS4_EEE9__end_capB7v160006Ev, symObjAddr: 0x22C4, symBinAddr: 0x100005F08, symSize: 0x28 }
  - { offsetInCU: 0xCC67, offset: 0xCC67, size: 0x8, addend: 0x0, symName: __ZNKSt3__16vectorINS_17basic_string_viewIcNS_11char_traitsIcEEEENS_9allocatorIS4_EEE14__annotate_newB7v160006Em, symObjAddr: 0x22EC, symBinAddr: 0x100005F30, symSize: 0xAC }
  - { offsetInCU: 0xCCA6, offset: 0xCCA6, size: 0x8, addend: 0x0, symName: __ZNSt3__116allocator_traitsINS_9allocatorINS_17basic_string_viewIcNS_11char_traitsIcEEEEEEE8max_sizeB7v160006IS6_vEEmRKS6_, symObjAddr: 0x2398, symBinAddr: 0x100005FDC, symSize: 0x24 }
  - { offsetInCU: 0xCCD4, offset: 0xCCD4, size: 0x8, addend: 0x0, symName: __ZNKSt3__16vectorINS_17basic_string_viewIcNS_11char_traitsIcEEEENS_9allocatorIS4_EEE7__allocB7v160006Ev, symObjAddr: 0x23BC, symBinAddr: 0x100006000, symSize: 0x28 }
  - { offsetInCU: 0xCCFA, offset: 0xCCFA, size: 0x8, addend: 0x0, symName: __ZNKSt3__19allocatorINS_17basic_string_viewIcNS_11char_traitsIcEEEEE8max_sizeB7v160006Ev, symObjAddr: 0x23E4, symBinAddr: 0x100006028, symSize: 0x14 }
  - { offsetInCU: 0xCD20, offset: 0xCD20, size: 0x8, addend: 0x0, symName: __ZNKSt3__117__compressed_pairIPNS_17basic_string_viewIcNS_11char_traitsIcEEEENS_9allocatorIS4_EEE6secondB7v160006Ev, symObjAddr: 0x23F8, symBinAddr: 0x10000603C, symSize: 0x24 }
  - { offsetInCU: 0xCD46, offset: 0xCD46, size: 0x8, addend: 0x0, symName: __ZNKSt3__122__compressed_pair_elemINS_9allocatorINS_17basic_string_viewIcNS_11char_traitsIcEEEEEELi1ELb1EE5__getB7v160006Ev, symObjAddr: 0x241C, symBinAddr: 0x100006060, symSize: 0x14 }
  - { offsetInCU: 0xCD6C, offset: 0xCD6C, size: 0x8, addend: 0x0, symName: __ZNSt3__19allocatorINS_17basic_string_viewIcNS_11char_traitsIcEEEEE8allocateB7v160006Em, symObjAddr: 0x2430, symBinAddr: 0x100006074, symSize: 0x58 }
  - { offsetInCU: 0xCDA0, offset: 0xCDA0, size: 0x8, addend: 0x0, symName: __ZNSt3__117__compressed_pairIPNS_17basic_string_viewIcNS_11char_traitsIcEEEENS_9allocatorIS4_EEE6secondB7v160006Ev, symObjAddr: 0x2488, symBinAddr: 0x1000060CC, symSize: 0x24 }
  - { offsetInCU: 0xCDC6, offset: 0xCDC6, size: 0x8, addend: 0x0, symName: __ZNSt3__122__compressed_pair_elemINS_9allocatorINS_17basic_string_viewIcNS_11char_traitsIcEEEEEELi1ELb1EE5__getB7v160006Ev, symObjAddr: 0x24AC, symBinAddr: 0x1000060F0, symSize: 0x14 }
  - { offsetInCU: 0xCDEC, offset: 0xCDEC, size: 0x8, addend: 0x0, symName: __ZNSt3__117__compressed_pairIPNS_17basic_string_viewIcNS_11char_traitsIcEEEENS_9allocatorIS4_EEE5firstB7v160006Ev, symObjAddr: 0x24C0, symBinAddr: 0x100006104, symSize: 0x24 }
  - { offsetInCU: 0xCE12, offset: 0xCE12, size: 0x8, addend: 0x0, symName: __ZNSt3__122__compressed_pair_elemIPNS_17basic_string_viewIcNS_11char_traitsIcEEEELi0ELb0EE5__getB7v160006Ev, symObjAddr: 0x24E4, symBinAddr: 0x100006128, symSize: 0x14 }
  - { offsetInCU: 0xCE38, offset: 0xCE38, size: 0x8, addend: 0x0, symName: __ZNKSt3__16vectorINS_17basic_string_viewIcNS_11char_traitsIcEEEENS_9allocatorIS4_EEE31__annotate_contiguous_containerB7v160006EPKvS9_S9_S9_, symObjAddr: 0x24F8, symBinAddr: 0x10000613C, symSize: 0x20 }
  - { offsetInCU: 0xCE8A, offset: 0xCE8A, size: 0x8, addend: 0x0, symName: __ZNKSt3__16vectorINS_17basic_string_viewIcNS_11char_traitsIcEEEENS_9allocatorIS4_EEE4dataB7v160006Ev, symObjAddr: 0x2518, symBinAddr: 0x10000615C, symSize: 0x28 }
  - { offsetInCU: 0xCEB0, offset: 0xCEB0, size: 0x8, addend: 0x0, symName: __ZNKSt3__16vectorINS_17basic_string_viewIcNS_11char_traitsIcEEEENS_9allocatorIS4_EEE8capacityB7v160006Ev, symObjAddr: 0x2540, symBinAddr: 0x100006184, symSize: 0x40 }
  - { offsetInCU: 0xCED6, offset: 0xCED6, size: 0x8, addend: 0x0, symName: __ZNKSt3__16vectorINS_17basic_string_viewIcNS_11char_traitsIcEEEENS_9allocatorIS4_EEE9__end_capB7v160006Ev, symObjAddr: 0x2594, symBinAddr: 0x1000061D8, symSize: 0x28 }
  - { offsetInCU: 0xCEFC, offset: 0xCEFC, size: 0x8, addend: 0x0, symName: __ZNKSt3__117__compressed_pairIPNS_17basic_string_viewIcNS_11char_traitsIcEEEENS_9allocatorIS4_EEE5firstB7v160006Ev, symObjAddr: 0x25BC, symBinAddr: 0x100006200, symSize: 0x24 }
  - { offsetInCU: 0xCF22, offset: 0xCF22, size: 0x8, addend: 0x0, symName: __ZNKSt3__122__compressed_pair_elemIPNS_17basic_string_viewIcNS_11char_traitsIcEEEELi0ELb0EE5__getB7v160006Ev, symObjAddr: 0x25E0, symBinAddr: 0x100006224, symSize: 0x14 }
  - { offsetInCU: 0xCF61, offset: 0xCF61, size: 0x8, addend: 0x0, symName: __ZNSt3__16vectorINS_17basic_string_viewIcNS_11char_traitsIcEEEENS_9allocatorIS4_EEE21_ConstructTransactionC1B7v160006ERS7_m, symObjAddr: 0x25F4, symBinAddr: 0x100006238, symSize: 0x3C }
  - { offsetInCU: 0xCFA9, offset: 0xCFA9, size: 0x8, addend: 0x0, symName: __ZNSt3__16vectorINS_17basic_string_viewIcNS_11char_traitsIcEEEENS_9allocatorIS4_EEE21_ConstructTransactionD1B7v160006Ev, symObjAddr: 0x2668, symBinAddr: 0x1000062AC, symSize: 0x2C }
  - { offsetInCU: 0xCFD3, offset: 0xCFD3, size: 0x8, addend: 0x0, symName: __ZNSt3__16vectorINS_17basic_string_viewIcNS_11char_traitsIcEEEENS_9allocatorIS4_EEE21_ConstructTransactionC2B7v160006ERS7_m, symObjAddr: 0x2694, symBinAddr: 0x1000062D8, symSize: 0x44 }
  - { offsetInCU: 0xD034, offset: 0xD034, size: 0x8, addend: 0x0, symName: __ZNKSt3__114__copy_trivialclB7v160006IKNS_17basic_string_viewIcNS_11char_traitsIcEEEES5_Li0EEENS_4pairIPT_PT0_EES9_S9_SB_, symObjAddr: 0x28B4, symBinAddr: 0x1000064F8, symSize: 0x48 }
  - { offsetInCU: 0xD0BA, offset: 0xD0BA, size: 0x8, addend: 0x0, symName: __ZNSt3__14pairIPKNS_17basic_string_viewIcNS_11char_traitsIcEEEES6_EC1B7v160006IS6_S6_LPv0EEEOT_OT0_, symObjAddr: 0x2A1C, symBinAddr: 0x100006660, symSize: 0x3C }
  - { offsetInCU: 0xD118, offset: 0xD118, size: 0x8, addend: 0x0, symName: __ZNSt3__14pairIPKNS_17basic_string_viewIcNS_11char_traitsIcEEEES6_EC2B7v160006IS6_S6_LPv0EEEOT_OT0_, symObjAddr: 0x2A58, symBinAddr: 0x10000669C, symSize: 0x34 }
  - { offsetInCU: 0xD176, offset: 0xD176, size: 0x8, addend: 0x0, symName: __ZNSt3__118__unwrap_iter_implIPKNS_17basic_string_viewIcNS_11char_traitsIcEEEELb1EE8__unwrapB7v160006ES6_, symObjAddr: 0x2A8C, symBinAddr: 0x1000066D0, symSize: 0x24 }
  - { offsetInCU: 0xD1A3, offset: 0xD1A3, size: 0x8, addend: 0x0, symName: __ZNSt3__14pairIPKNS_17basic_string_viewIcNS_11char_traitsIcEEEEPS4_EC1B7v160006IRS6_S7_LPv0EEEOT_OT0_, symObjAddr: 0x2B80, symBinAddr: 0x1000067C4, symSize: 0x3C }
  - { offsetInCU: 0xD201, offset: 0xD201, size: 0x8, addend: 0x0, symName: __ZNSt3__14pairIPKNS_17basic_string_viewIcNS_11char_traitsIcEEEEPS4_EC2B7v160006IRS6_S7_LPv0EEEOT_OT0_, symObjAddr: 0x2BBC, symBinAddr: 0x100006800, symSize: 0x34 }
  - { offsetInCU: 0xD25F, offset: 0xD25F, size: 0x8, addend: 0x0, symName: __ZNSt3__118__unwrap_iter_implIPNS_17basic_string_viewIcNS_11char_traitsIcEEEELb1EE8__unwrapB7v160006ES5_, symObjAddr: 0x2BF0, symBinAddr: 0x100006834, symSize: 0x24 }
  - { offsetInCU: 0xD282, offset: 0xD282, size: 0x8, addend: 0x0, symName: __ZNSt3__14pairIPKNS_17basic_string_viewIcNS_11char_traitsIcEEEEPS4_EC1B7v160006IS6_S7_LPv0EEEOT_OT0_, symObjAddr: 0x2C14, symBinAddr: 0x100006858, symSize: 0x3C }
  - { offsetInCU: 0xD2E0, offset: 0xD2E0, size: 0x8, addend: 0x0, symName: __ZNSt3__14pairIPKNS_17basic_string_viewIcNS_11char_traitsIcEEEEPS4_EC2B7v160006IS6_S7_LPv0EEEOT_OT0_, symObjAddr: 0x2C50, symBinAddr: 0x100006894, symSize: 0x34 }
  - { offsetInCU: 0xD33E, offset: 0xD33E, size: 0x8, addend: 0x0, symName: __ZNSt3__118__unwrap_iter_implIPKNS_17basic_string_viewIcNS_11char_traitsIcEEEELb1EE8__rewrapB7v160006ES6_S6_, symObjAddr: 0x2CC0, symBinAddr: 0x100006904, symSize: 0x50 }
  - { offsetInCU: 0xD36F, offset: 0xD36F, size: 0x8, addend: 0x0, symName: __ZNSt3__118__unwrap_iter_implIPNS_17basic_string_viewIcNS_11char_traitsIcEEEELb1EE8__rewrapB7v160006ES5_S5_, symObjAddr: 0x2D10, symBinAddr: 0x100006954, symSize: 0x50 }
  - { offsetInCU: 0xD3A0, offset: 0xD3A0, size: 0x8, addend: 0x0, symName: __ZNSt3__16vectorINS_17basic_string_viewIcNS_11char_traitsIcEEEENS_9allocatorIS4_EEE21_ConstructTransactionD2B7v160006Ev, symObjAddr: 0x2D60, symBinAddr: 0x1000069A4, symSize: 0x20 }
  - { offsetInCU: 0xD3CA, offset: 0xD3CA, size: 0x8, addend: 0x0, symName: __ZNSt3__128__exception_guard_exceptionsINS_6vectorINS_17basic_string_viewIcNS_11char_traitsIcEEEENS_9allocatorIS5_EEE16__destroy_vectorEED2B7v160006Ev, symObjAddr: 0x2D80, symBinAddr: 0x1000069C4, symSize: 0x50 }
  - { offsetInCU: 0xD3F4, offset: 0xD3F4, size: 0x8, addend: 0x0, symName: __ZNSt3__16vectorINS_17basic_string_viewIcNS_11char_traitsIcEEEENS_9allocatorIS4_EEE16__destroy_vectorclB7v160006Ev, symObjAddr: 0x2DD0, symBinAddr: 0x100006A14, symSize: 0x9C }
  - { offsetInCU: 0xD41A, offset: 0xD41A, size: 0x8, addend: 0x0, symName: __ZNKSt3__16vectorINS_17basic_string_viewIcNS_11char_traitsIcEEEENS_9allocatorIS4_EEE17__annotate_deleteB7v160006Ev, symObjAddr: 0x2E6C, symBinAddr: 0x100006AB0, symSize: 0xB8 }
  - { offsetInCU: 0xD440, offset: 0xD440, size: 0x8, addend: 0x0, symName: __ZNSt3__16vectorINS_17basic_string_viewIcNS_11char_traitsIcEEEENS_9allocatorIS4_EEE7__clearB7v160006Ev, symObjAddr: 0x2F34, symBinAddr: 0x100006B78, symSize: 0x28 }
  - { offsetInCU: 0xD466, offset: 0xD466, size: 0x8, addend: 0x0, symName: __ZNSt3__116allocator_traitsINS_9allocatorINS_17basic_string_viewIcNS_11char_traitsIcEEEEEEE10deallocateB7v160006ERS6_PS5_m, symObjAddr: 0x2F5C, symBinAddr: 0x100006BA0, symSize: 0x34 }
  - { offsetInCU: 0xD4A8, offset: 0xD4A8, size: 0x8, addend: 0x0, symName: __ZNSt3__16vectorINS_17basic_string_viewIcNS_11char_traitsIcEEEENS_9allocatorIS4_EEE22__base_destruct_at_endB7v160006EPS4_, symObjAddr: 0x2F90, symBinAddr: 0x100006BD4, symSize: 0x8C }
  - { offsetInCU: 0xD4EC, offset: 0xD4EC, size: 0x8, addend: 0x0, symName: __ZNSt3__116allocator_traitsINS_9allocatorINS_17basic_string_viewIcNS_11char_traitsIcEEEEEEE7destroyB7v160006IS5_vEEvRS6_PT_, symObjAddr: 0x301C, symBinAddr: 0x100006C60, symSize: 0x2C }
  - { offsetInCU: 0xD529, offset: 0xD529, size: 0x8, addend: 0x0, symName: __ZNSt3__19allocatorINS_17basic_string_viewIcNS_11char_traitsIcEEEEE7destroyB7v160006EPS4_, symObjAddr: 0x3048, symBinAddr: 0x100006C8C, symSize: 0x14 }
  - { offsetInCU: 0xD55D, offset: 0xD55D, size: 0x8, addend: 0x0, symName: __ZNSt3__19allocatorINS_17basic_string_viewIcNS_11char_traitsIcEEEEE10deallocateB7v160006EPS4_m, symObjAddr: 0x305C, symBinAddr: 0x100006CA0, symSize: 0x40 }
  - { offsetInCU: 0xD59F, offset: 0xD59F, size: 0x8, addend: 0x0, symName: __ZNSt3__16vectorINS_17basic_string_viewIcNS_11char_traitsIcEEEENS_9allocatorIS4_EEED2B7v160006Ev, symObjAddr: 0x309C, symBinAddr: 0x100006CE0, symSize: 0x44 }
  - { offsetInCU: 0xD5C9, offset: 0xD5C9, size: 0x8, addend: 0x0, symName: __ZNKSt3__117basic_string_viewIcNS_11char_traitsIcEEE4dataB7v160006Ev, symObjAddr: 0x32CC, symBinAddr: 0x100006F10, symSize: 0x18 }
  - { offsetInCU: 0xD5EF, offset: 0xD5EF, size: 0x8, addend: 0x0, symName: __ZNKSt3__117basic_string_viewIcNS_11char_traitsIcEEE4sizeB7v160006Ev, symObjAddr: 0x32E4, symBinAddr: 0x100006F28, symSize: 0x18 }
  - { offsetInCU: 0xD62E, offset: 0xD62E, size: 0x8, addend: 0x0, symName: __ZNKSt3__113basic_ostreamIcNS_11char_traitsIcEEE6sentrycvbB7v160006Ev, symObjAddr: 0x32FC, symBinAddr: 0x100006F40, symSize: 0x1C }
  - { offsetInCU: 0xD654, offset: 0xD654, size: 0x8, addend: 0x0, symName: __ZNSt3__119ostreambuf_iteratorIcNS_11char_traitsIcEEEC1B7v160006ERNS_13basic_ostreamIcS2_EE, symObjAddr: 0x3558, symBinAddr: 0x10000719C, symSize: 0x34 }
  - { offsetInCU: 0xD68C, offset: 0xD68C, size: 0x8, addend: 0x0, symName: __ZNKSt3__18ios_base5flagsB7v160006Ev, symObjAddr: 0x358C, symBinAddr: 0x1000071D0, symSize: 0x18 }
  - { offsetInCU: 0xD6B4, offset: 0xD6B4, size: 0x8, addend: 0x0, symName: __ZNKSt3__19basic_iosIcNS_11char_traitsIcEEE4fillB7v160006Ev, symObjAddr: 0x35A4, symBinAddr: 0x1000071E8, symSize: 0x64 }
  - { offsetInCU: 0xD6DC, offset: 0xD6DC, size: 0x8, addend: 0x0, symName: __ZNKSt3__119ostreambuf_iteratorIcNS_11char_traitsIcEEE6failedB7v160006Ev, symObjAddr: 0x3608, symBinAddr: 0x10000724C, symSize: 0x24 }
  - { offsetInCU: 0xD702, offset: 0xD702, size: 0x8, addend: 0x0, symName: __ZNSt3__19basic_iosIcNS_11char_traitsIcEEE8setstateB7v160006Ej, symObjAddr: 0x362C, symBinAddr: 0x100007270, symSize: 0x2C }
  - { offsetInCU: 0xD737, offset: 0xD737, size: 0x8, addend: 0x0, symName: __ZNKSt3__18ios_base5widthB7v160006Ev, symObjAddr: 0x3658, symBinAddr: 0x10000729C, symSize: 0x18 }
  - { offsetInCU: 0xD75F, offset: 0xD75F, size: 0x8, addend: 0x0, symName: __ZNSt3__115basic_streambufIcNS_11char_traitsIcEEE5sputnB7v160006EPKcl, symObjAddr: 0x3670, symBinAddr: 0x1000072B4, symSize: 0x3C }
  - { offsetInCU: 0xD7A1, offset: 0xD7A1, size: 0x8, addend: 0x0, symName: __ZNSt3__112basic_stringIcNS_11char_traitsIcEENS_9allocatorIcEEEC1B7v160006Emc, symObjAddr: 0x36AC, symBinAddr: 0x1000072F0, symSize: 0x3C }
  - { offsetInCU: 0xD7E9, offset: 0xD7E9, size: 0x8, addend: 0x0, symName: __ZNSt3__112basic_stringIcNS_11char_traitsIcEENS_9allocatorIcEEE4dataB7v160006Ev, symObjAddr: 0x36E8, symBinAddr: 0x10000732C, symSize: 0x28 }
  - { offsetInCU: 0xD80F, offset: 0xD80F, size: 0x8, addend: 0x0, symName: __ZNSt3__18ios_base5widthB7v160006El, symObjAddr: 0x3710, symBinAddr: 0x100007354, symSize: 0x2C }
  - { offsetInCU: 0xD855, offset: 0xD855, size: 0x8, addend: 0x0, symName: __ZNSt3__112basic_stringIcNS_11char_traitsIcEENS_9allocatorIcEEEC2B7v160006Emc, symObjAddr: 0x373C, symBinAddr: 0x100007380, symSize: 0x54 }
  - { offsetInCU: 0xD89D, offset: 0xD89D, size: 0x8, addend: 0x0, symName: __ZNSt3__117__compressed_pairINS_12basic_stringIcNS_11char_traitsIcEENS_9allocatorIcEEE5__repES5_EC1B7v160006INS_18__default_init_tagESA_EEOT_OT0_, symObjAddr: 0x3790, symBinAddr: 0x1000073D4, symSize: 0x3C }
  - { offsetInCU: 0xD8F5, offset: 0xD8F5, size: 0x8, addend: 0x0, symName: __ZNSt3__117__compressed_pairINS_12basic_stringIcNS_11char_traitsIcEENS_9allocatorIcEEE5__repES5_EC2B7v160006INS_18__default_init_tagESA_EEOT_OT0_, symObjAddr: 0x37DC, symBinAddr: 0x100007420, symSize: 0x3C }
  - { offsetInCU: 0xD94D, offset: 0xD94D, size: 0x8, addend: 0x0, symName: __ZNSt3__122__compressed_pair_elemINS_12basic_stringIcNS_11char_traitsIcEENS_9allocatorIcEEE5__repELi0ELb0EEC2B7v160006ENS_18__default_init_tagE, symObjAddr: 0x3818, symBinAddr: 0x10000745C, symSize: 0x14 }
  - { offsetInCU: 0xD982, offset: 0xD982, size: 0x8, addend: 0x0, symName: __ZNSt3__122__compressed_pair_elemINS_9allocatorIcEELi1ELb1EEC2B7v160006ENS_18__default_init_tagE, symObjAddr: 0x382C, symBinAddr: 0x100007470, symSize: 0x2C }
  - { offsetInCU: 0xD9B7, offset: 0xD9B7, size: 0x8, addend: 0x0, symName: __ZNSt3__19allocatorIcEC2B7v160006Ev, symObjAddr: 0x3858, symBinAddr: 0x10000749C, symSize: 0x2C }
  - { offsetInCU: 0xD9E1, offset: 0xD9E1, size: 0x8, addend: 0x0, symName: __ZNSt3__116__non_trivial_ifILb1ENS_9allocatorIcEEEC2B7v160006Ev, symObjAddr: 0x3884, symBinAddr: 0x1000074C8, symSize: 0x14 }
  - { offsetInCU: 0xDA0B, offset: 0xDA0B, size: 0x8, addend: 0x0, symName: __ZNSt3__112basic_stringIcNS_11char_traitsIcEENS_9allocatorIcEEE13__get_pointerB7v160006Ev, symObjAddr: 0x38AC, symBinAddr: 0x1000074F0, symSize: 0x54 }
  - { offsetInCU: 0xDA31, offset: 0xDA31, size: 0x8, addend: 0x0, symName: __ZNKSt3__112basic_stringIcNS_11char_traitsIcEENS_9allocatorIcEEE9__is_longB7v160006Ev, symObjAddr: 0x3900, symBinAddr: 0x100007544, symSize: 0x38 }
  - { offsetInCU: 0xDA57, offset: 0xDA57, size: 0x8, addend: 0x0, symName: __ZNSt3__112basic_stringIcNS_11char_traitsIcEENS_9allocatorIcEEE18__get_long_pointerB7v160006Ev, symObjAddr: 0x3938, symBinAddr: 0x10000757C, symSize: 0x28 }
  - { offsetInCU: 0xDA7D, offset: 0xDA7D, size: 0x8, addend: 0x0, symName: __ZNSt3__112basic_stringIcNS_11char_traitsIcEENS_9allocatorIcEEE19__get_short_pointerB7v160006Ev, symObjAddr: 0x3960, symBinAddr: 0x1000075A4, symSize: 0x28 }
  - { offsetInCU: 0xDAA3, offset: 0xDAA3, size: 0x8, addend: 0x0, symName: __ZNKSt3__117__compressed_pairINS_12basic_stringIcNS_11char_traitsIcEENS_9allocatorIcEEE5__repES5_E5firstB7v160006Ev, symObjAddr: 0x3988, symBinAddr: 0x1000075CC, symSize: 0x24 }
  - { offsetInCU: 0xDAC9, offset: 0xDAC9, size: 0x8, addend: 0x0, symName: __ZNKSt3__122__compressed_pair_elemINS_12basic_stringIcNS_11char_traitsIcEENS_9allocatorIcEEE5__repELi0ELb0EE5__getB7v160006Ev, symObjAddr: 0x39AC, symBinAddr: 0x1000075F0, symSize: 0x14 }
  - { offsetInCU: 0xDAEF, offset: 0xDAEF, size: 0x8, addend: 0x0, symName: __ZNSt3__117__compressed_pairINS_12basic_stringIcNS_11char_traitsIcEENS_9allocatorIcEEE5__repES5_E5firstB7v160006Ev, symObjAddr: 0x39C0, symBinAddr: 0x100007604, symSize: 0x24 }
  - { offsetInCU: 0xDB15, offset: 0xDB15, size: 0x8, addend: 0x0, symName: __ZNSt3__122__compressed_pair_elemINS_12basic_stringIcNS_11char_traitsIcEENS_9allocatorIcEEE5__repELi0ELb0EE5__getB7v160006Ev, symObjAddr: 0x39E4, symBinAddr: 0x100007628, symSize: 0x14 }
  - { offsetInCU: 0xDB3B, offset: 0xDB3B, size: 0x8, addend: 0x0, symName: __ZNSt3__114pointer_traitsIPcE10pointer_toB7v160006ERc, symObjAddr: 0x39F8, symBinAddr: 0x10000763C, symSize: 0x14 }
  - { offsetInCU: 0xDB5E, offset: 0xDB5E, size: 0x8, addend: 0x0, symName: __ZNSt3__119ostreambuf_iteratorIcNS_11char_traitsIcEEEC2B7v160006ERNS_13basic_ostreamIcS2_EE, symObjAddr: 0x3A0C, symBinAddr: 0x100007650, symSize: 0x54 }
  - { offsetInCU: 0xDB96, offset: 0xDB96, size: 0x8, addend: 0x0, symName: __ZNKSt3__19basic_iosIcNS_11char_traitsIcEEE5rdbufB7v160006Ev, symObjAddr: 0x3A60, symBinAddr: 0x1000076A4, symSize: 0x24 }
  - { offsetInCU: 0xDBBE, offset: 0xDBBE, size: 0x8, addend: 0x0, symName: __ZNKSt3__18ios_base5rdbufB7v160006Ev, symObjAddr: 0x3A84, symBinAddr: 0x1000076C8, symSize: 0x18 }
  - { offsetInCU: 0xDBE4, offset: 0xDBE4, size: 0x8, addend: 0x0, symName: __ZNSt3__111char_traitsIcE11eq_int_typeEii, symObjAddr: 0x3A9C, symBinAddr: 0x1000076E0, symSize: 0x28 }
  - { offsetInCU: 0xDC15, offset: 0xDC15, size: 0x8, addend: 0x0, symName: __ZNSt3__111char_traitsIcE3eofEv, symObjAddr: 0x3AC4, symBinAddr: 0x100007708, symSize: 0x8 }
  - { offsetInCU: 0xDC29, offset: 0xDC29, size: 0x8, addend: 0x0, symName: __ZNKSt3__19basic_iosIcNS_11char_traitsIcEEE5widenB7v160006Ec, symObjAddr: 0x3ACC, symBinAddr: 0x100007710, symSize: 0x84 }
  - { offsetInCU: 0xDC97, offset: 0xDC97, size: 0x8, addend: 0x0, symName: __ZNKSt3__15ctypeIcE5widenB7v160006Ec, symObjAddr: 0x3B7C, symBinAddr: 0x1000077C0, symSize: 0x38 }
  - { offsetInCU: 0xDCCC, offset: 0xDCCC, size: 0x8, addend: 0x0, symName: __ZNSt3__18ios_base8setstateB7v160006Ej, symObjAddr: 0x3BB4, symBinAddr: 0x1000077F8, symSize: 0x34 }
...
